target datalayout = "e-m:e-p270:32:32-p271:32:32-p272:64:64-i64:64-i128:128-f80:128-n8:16:32:64-S128"
target triple = "x86_64-pc-linux-gnu"

%struct.bn_mont_ctx_st = type { i32, %struct.bignum_st, %struct.bignum_st, %struct.bignum_st, [2 x i64], i32 }
%struct.bignum_st = type { ptr, i32, i32, i32, i32 }

; Function Attrs: nounwind uwtable
define i32 @ossl_bn_mont_ctx_set(ptr noundef %0, ptr noundef %1, i32 noundef %2, ptr noundef %3, i64 noundef %4, i32 noundef %5, i32 noundef %6) #0 {
  %8 = alloca i32, align 4
  %9 = alloca ptr, align 8
  %10 = alloca ptr, align 8
  %11 = alloca i32, align 4
  %12 = alloca ptr, align 8
  %13 = alloca i64, align 8
  %14 = alloca i32, align 4
  %15 = alloca i32, align 4
  store ptr %0, ptr %9, align 8, !tbaa !8
  store ptr %1, ptr %10, align 8, !tbaa !3
  store i32 %2, ptr %11, align 4, !tbaa !12
  store ptr %3, ptr %12, align 8, !tbaa !41
  store i64 %4, ptr %13, align 8, !tbaa !24
  store i32 %5, ptr %14, align 4, !tbaa !12
  store i32 %6, ptr %15, align 4, !tbaa !12
  %16 = load ptr, ptr %9, align 8, !tbaa !8
  %17 = getelementptr inbounds nuw %struct.bn_mont_ctx_st, ptr %16, i32 0, i32 2
  %18 = load ptr, ptr %10, align 8, !tbaa !3
  %19 = call ptr @BN_copy(ptr noundef %17, ptr noundef %18)
  %20 = icmp eq ptr %19, null
  br i1 %20, label %21, label %22

21:                                               ; preds = %7
  store i32 0, ptr %8, align 4
  br label %47

22:                                               ; preds = %7
  %23 = load ptr, ptr %12, align 8, !tbaa !41
  %24 = load i64, ptr %13, align 8, !tbaa !24
  %25 = trunc i64 %24 to i32
  %26 = load ptr, ptr %9, align 8, !tbaa !8
  %27 = getelementptr inbounds nuw %struct.bn_mont_ctx_st, ptr %26, i32 0, i32 1
  %28 = call ptr @BN_bin2bn(ptr noundef %23, i32 noundef %25, ptr noundef %27)
  %29 = icmp eq ptr %28, null
  br i1 %29, label %30, label %31

30:                                               ; preds = %22
  store i32 0, ptr %8, align 4
  br label %47

31:                                               ; preds = %22
  %32 = load i32, ptr %11, align 4, !tbaa !12
  %33 = load ptr, ptr %9, align 8, !tbaa !8
  %34 = getelementptr inbounds nuw %struct.bn_mont_ctx_st, ptr %33, i32 0, i32 0
  store i32 %32, ptr %34, align 8, !tbaa !31
  %35 = load i32, ptr %15, align 4, !tbaa !12
  %36 = zext i32 %35 to i64
  %37 = shl i64 %36, 32
  %38 = load i32, ptr %14, align 4, !tbaa !12
  %39 = zext i32 %38 to i64
  %40 = or i64 %37, %39
  %41 = load ptr, ptr %9, align 8, !tbaa !8
  %42 = getelementptr inbounds nuw %struct.bn_mont_ctx_st, ptr %41, i32 0, i32 4
  %43 = getelementptr inbounds [2 x i64], ptr %42, i64 0, i64 0
  store i64 %40, ptr %43, align 8, !tbaa !24
  %44 = load ptr, ptr %9, align 8, !tbaa !8
  %45 = getelementptr inbounds nuw %struct.bn_mont_ctx_st, ptr %44, i32 0, i32 4
  %46 = getelementptr inbounds [2 x i64], ptr %45, i64 0, i64 1
  store i64 0, ptr %46, align 8, !tbaa !24
  store i32 1, ptr %8, align 4
  br label %47

47:                                               ; preds = %31, %30, %21
  %48 = load i32, ptr %8, align 4
  ret i32 %48
}