; Function Attrs: nounwind uwtable
define range(i32 0, 2) i32 @ossl_bn_mont_ctx_set(ptr noundef %0, ptr noundef %1, i32 noundef %2, ptr noundef %3, i64 noundef %4, i32 noundef %5, i32 noundef %6) local_unnamed_addr #0 {
  %8 = getelementptr inbounds nuw i8, ptr %0, i64 32
  %9 = tail call ptr @BN_copy(ptr noundef nonnull %8, ptr noundef %1) #5
  %10 = icmp eq ptr %9, null
  br i1 %10, label %23, label %11

11:                                               ; preds = %7
  %12 = trunc i64 %4 to i32
  %13 = getelementptr inbounds nuw i8, ptr %0, i64 8
  %14 = tail call ptr @BN_bin2bn(ptr noundef %3, i32 noundef %12, ptr noundef nonnull %13) #5
  %15 = icmp eq ptr %14, null
  br i1 %15, label %23, label %16

16:                                               ; preds = %11
  store i32 %2, ptr %0, align 8, !tbaa !21
  %17 = zext i32 %6 to i64
  %18 = shl nuw i64 %17, 32
  %19 = zext i32 %5 to i64
  %20 = or disjoint i64 %18, %19
  %21 = getelementptr inbounds nuw i8, ptr %0, i64 80
  store i64 %20, ptr %21, align 8, !tbaa !15
  %22 = getelementptr inbounds nuw i8, ptr %0, i64 88
  store i64 0, ptr %22, align 8, !tbaa !15
  br label %23

23:                                               ; preds = %11, %7, %16
  %.0 = phi i32 [ 1, %16 ], [ 0, %7 ], [ 0, %11 ]
  ret i32 %.0
}